target datalayout = "e-m:e-p270:32:32-p271:32:32-p272:64:64-i64:64-i128:128-f80:128-n8:16:32:64-S128"
target triple = "x86_64-pc-linux-gnu"

@.str = private unnamed_addr constant [10 x i8] c"EVENT_ALL\00", align 1
@.str.1 = private unnamed_addr constant [14 x i8] c"EVENT_PRESSED\00", align 1
@.str.2 = private unnamed_addr constant [15 x i8] c"EVENT_PRESSING\00", align 1
@.str.3 = private unnamed_addr constant [17 x i8] c"EVENT_PRESS_LOST\00", align 1
@.str.4 = private unnamed_addr constant [20 x i8] c"EVENT_SHORT_CLICKED\00", align 1
@.str.5 = private unnamed_addr constant [21 x i8] c"EVENT_SINGLE_CLICKED\00", align 1
@.str.6 = private unnamed_addr constant [21 x i8] c"EVENT_DOUBLE_CLICKED\00", align 1
@.str.7 = private unnamed_addr constant [21 x i8] c"EVENT_TRIPLE_CLICKED\00", align 1
@.str.8 = private unnamed_addr constant [19 x i8] c"EVENT_LONG_PRESSED\00", align 1
@.str.9 = private unnamed_addr constant [26 x i8] c"EVENT_LONG_PRESSED_REPEAT\00", align 1
@.str.10 = private unnamed_addr constant [14 x i8] c"EVENT_CLICKED\00", align 1
@.str.11 = private unnamed_addr constant [15 x i8] c"EVENT_RELEASED\00", align 1
@.str.12 = private unnamed_addr constant [19 x i8] c"EVENT_SCROLL_BEGIN\00", align 1
@.str.13 = private unnamed_addr constant [25 x i8] c"EVENT_SCROLL_THROW_BEGIN\00", align 1
@.str.14 = private unnamed_addr constant [17 x i8] c"EVENT_SCROLL_END\00", align 1
@.str.15 = private unnamed_addr constant [13 x i8] c"EVENT_SCROLL\00", align 1
@.str.16 = private unnamed_addr constant [14 x i8] c"EVENT_GESTURE\00", align 1
@.str.17 = private unnamed_addr constant [10 x i8] c"EVENT_KEY\00", align 1
@.str.18 = private unnamed_addr constant [13 x i8] c"EVENT_ROTARY\00", align 1
@.str.19 = private unnamed_addr constant [14 x i8] c"EVENT_FOCUSED\00", align 1
@.str.20 = private unnamed_addr constant [16 x i8] c"EVENT_DEFOCUSED\00", align 1
@.str.21 = private unnamed_addr constant [12 x i8] c"EVENT_LEAVE\00", align 1
@.str.22 = private unnamed_addr constant [15 x i8] c"EVENT_HIT_TEST\00", align 1
@.str.23 = private unnamed_addr constant [18 x i8] c"EVENT_INDEV_RESET\00", align 1
@.str.24 = private unnamed_addr constant [17 x i8] c"EVENT_HOVER_OVER\00", align 1
@.str.25 = private unnamed_addr constant [18 x i8] c"EVENT_HOVER_LEAVE\00", align 1
@.str.26 = private unnamed_addr constant [18 x i8] c"EVENT_COVER_CHECK\00", align 1
@.str.27 = private unnamed_addr constant [25 x i8] c"EVENT_REFR_EXT_DRAW_SIZE\00", align 1
@.str.28 = private unnamed_addr constant [22 x i8] c"EVENT_DRAW_MAIN_BEGIN\00", align 1
@.str.29 = private unnamed_addr constant [16 x i8] c"EVENT_DRAW_MAIN\00", align 1
@.str.30 = private unnamed_addr constant [20 x i8] c"EVENT_DRAW_MAIN_END\00", align 1
@.str.31 = private unnamed_addr constant [22 x i8] c"EVENT_DRAW_POST_BEGIN\00", align 1
@.str.32 = private unnamed_addr constant [16 x i8] c"EVENT_DRAW_POST\00", align 1
@.str.33 = private unnamed_addr constant [20 x i8] c"EVENT_DRAW_POST_END\00", align 1
@.str.34 = private unnamed_addr constant [22 x i8] c"EVENT_DRAW_TASK_ADDED\00", align 1
@.str.35 = private unnamed_addr constant [20 x i8] c"EVENT_VALUE_CHANGED\00", align 1
@.str.36 = private unnamed_addr constant [13 x i8] c"EVENT_INSERT\00", align 1
@.str.37 = private unnamed_addr constant [14 x i8] c"EVENT_REFRESH\00", align 1
@.str.38 = private unnamed_addr constant [12 x i8] c"EVENT_READY\00", align 1
@.str.39 = private unnamed_addr constant [13 x i8] c"EVENT_CANCEL\00", align 1
@.str.40 = private unnamed_addr constant [13 x i8] c"EVENT_CREATE\00", align 1
@.str.41 = private unnamed_addr constant [13 x i8] c"EVENT_DELETE\00", align 1
@.str.42 = private unnamed_addr constant [20 x i8] c"EVENT_CHILD_CHANGED\00", align 1
@.str.43 = private unnamed_addr constant [20 x i8] c"EVENT_CHILD_CREATED\00", align 1
@.str.44 = private unnamed_addr constant [20 x i8] c"EVENT_CHILD_DELETED\00", align 1
@.str.45 = private unnamed_addr constant [26 x i8] c"EVENT_SCREEN_UNLOAD_START\00", align 1
@.str.46 = private unnamed_addr constant [24 x i8] c"EVENT_SCREEN_LOAD_START\00", align 1
@.str.47 = private unnamed_addr constant [20 x i8] c"EVENT_SCREEN_LOADED\00", align 1
@.str.48 = private unnamed_addr constant [22 x i8] c"EVENT_SCREEN_UNLOADED\00", align 1
@.str.49 = private unnamed_addr constant [19 x i8] c"EVENT_SIZE_CHANGED\00", align 1
@.str.50 = private unnamed_addr constant [20 x i8] c"EVENT_STYLE_CHANGED\00", align 1
@.str.51 = private unnamed_addr constant [21 x i8] c"EVENT_LAYOUT_CHANGED\00", align 1
@.str.52 = private unnamed_addr constant [20 x i8] c"EVENT_GET_SELF_SIZE\00", align 1
@.str.53 = private unnamed_addr constant [22 x i8] c"EVENT_INVALIDATE_AREA\00", align 1
@.str.54 = private unnamed_addr constant [25 x i8] c"EVENT_RESOLUTION_CHANGED\00", align 1
@.str.55 = private unnamed_addr constant [27 x i8] c"EVENT_COLOR_FORMAT_CHANGED\00", align 1
@.str.56 = private unnamed_addr constant [19 x i8] c"EVENT_REFR_REQUEST\00", align 1
@.str.57 = private unnamed_addr constant [17 x i8] c"EVENT_REFR_START\00", align 1
@.str.58 = private unnamed_addr constant [17 x i8] c"EVENT_REFR_READY\00", align 1
@.str.59 = private unnamed_addr constant [19 x i8] c"EVENT_RENDER_START\00", align 1
@.str.60 = private unnamed_addr constant [19 x i8] c"EVENT_RENDER_READY\00", align 1
@.str.61 = private unnamed_addr constant [18 x i8] c"EVENT_FLUSH_START\00", align 1
@.str.62 = private unnamed_addr constant [19 x i8] c"EVENT_FLUSH_FINISH\00", align 1
@.str.63 = private unnamed_addr constant [23 x i8] c"EVENT_FLUSH_WAIT_START\00", align 1
@.str.64 = private unnamed_addr constant [24 x i8] c"EVENT_FLUSH_WAIT_FINISH\00", align 1
@.str.65 = private unnamed_addr constant [12 x i8] c"EVENT_VSYNC\00", align 1
@.str.66 = private unnamed_addr constant [14 x i8] c"EVENT_UNKNOWN\00", align 1

; Function Attrs: nounwind uwtable
define ptr @lv_event_code_get_name(i32 noundef %0) #0 {
  %2 = alloca ptr, align 8
  %3 = alloca i32, align 4
  store i32 %0, ptr %3, align 4, !tbaa !37
  %4 = load i32, ptr %3, align 4, !tbaa !37
  %5 = and i32 %4, -32769
  store i32 %5, ptr %3, align 4, !tbaa !37
  %6 = load i32, ptr %3, align 4, !tbaa !37
  switch i32 %6, label %74 [
    i32 0, label %7
    i32 1, label %8
    i32 2, label %9
    i32 3, label %10
    i32 4, label %11
    i32 5, label %12
    i32 6, label %13
    i32 7, label %14
    i32 8, label %15
    i32 9, label %16
    i32 10, label %17
    i32 11, label %18
    i32 12, label %19
    i32 13, label %20
    i32 14, label %21
    i32 15, label %22
    i32 16, label %23
    i32 17, label %24
    i32 18, label %25
    i32 19, label %26
    i32 20, label %27
    i32 21, label %28
    i32 22, label %29
    i32 23, label %30
    i32 24, label %31
    i32 25, label %32
    i32 26, label %33
    i32 27, label %34
    i32 28, label %35
    i32 29, label %36
    i32 30, label %37
    i32 31, label %38
    i32 32, label %39
    i32 33, label %40
    i32 34, label %41
    i32 35, label %42
    i32 36, label %43
    i32 37, label %44
    i32 38, label %45
    i32 39, label %46
    i32 40, label %47
    i32 41, label %48
    i32 42, label %49
    i32 43, label %50
    i32 44, label %51
    i32 45, label %52
    i32 46, label %53
    i32 47, label %54
    i32 48, label %55
    i32 49, label %56
    i32 50, label %57
    i32 51, label %58
    i32 52, label %59
    i32 53, label %60
    i32 54, label %61
    i32 55, label %62
    i32 56, label %63
    i32 57, label %64
    i32 58, label %65
    i32 59, label %66
    i32 60, label %67
    i32 61, label %68
    i32 62, label %69
    i32 63, label %70
    i32 64, label %71
    i32 65, label %72
    i32 66, label %73
    i32 32768, label %73
    i32 65536, label %73
  ]

7:                                                ; preds = %1
  store ptr @.str, ptr %2, align 8
  br label %75

8:                                                ; preds = %1
  store ptr @.str.1, ptr %2, align 8
  br label %75

9:                                                ; preds = %1
  store ptr @.str.2, ptr %2, align 8
  br label %75

10:                                               ; preds = %1
  store ptr @.str.3, ptr %2, align 8
  br label %75

11:                                               ; preds = %1
  store ptr @.str.4, ptr %2, align 8
  br label %75

12:                                               ; preds = %1
  store ptr @.str.5, ptr %2, align 8
  br label %75

13:                                               ; preds = %1
  store ptr @.str.6, ptr %2, align 8
  br label %75

14:                                               ; preds = %1
  store ptr @.str.7, ptr %2, align 8
  br label %75

15:                                               ; preds = %1
  store ptr @.str.8, ptr %2, align 8
  br label %75

16:                                               ; preds = %1
  store ptr @.str.9, ptr %2, align 8
  br label %75

17:                                               ; preds = %1
  store ptr @.str.10, ptr %2, align 8
  br label %75

18:                                               ; preds = %1
  store ptr @.str.11, ptr %2, align 8
  br label %75

19:                                               ; preds = %1
  store ptr @.str.12, ptr %2, align 8
  br label %75

20:                                               ; preds = %1
  store ptr @.str.13, ptr %2, align 8
  br label %75

21:                                               ; preds = %1
  store ptr @.str.14, ptr %2, align 8
  br label %75

22:                                               ; preds = %1
  store ptr @.str.15, ptr %2, align 8
  br label %75

23:                                               ; preds = %1
  store ptr @.str.16, ptr %2, align 8
  br label %75

24:                                               ; preds = %1
  store ptr @.str.17, ptr %2, align 8
  br label %75

25:                                               ; preds = %1
  store ptr @.str.18, ptr %2, align 8
  br label %75

26:                                               ; preds = %1
  store ptr @.str.19, ptr %2, align 8
  br label %75

27:                                               ; preds = %1
  store ptr @.str.20, ptr %2, align 8
  br label %75

28:                                               ; preds = %1
  store ptr @.str.21, ptr %2, align 8
  br label %75

29:                                               ; preds = %1
  store ptr @.str.22, ptr %2, align 8
  br label %75

30:                                               ; preds = %1
  store ptr @.str.23, ptr %2, align 8
  br label %75

31:                                               ; preds = %1
  store ptr @.str.24, ptr %2, align 8
  br label %75

32:                                               ; preds = %1
  store ptr @.str.25, ptr %2, align 8
  br label %75

33:                                               ; preds = %1
  store ptr @.str.26, ptr %2, align 8
  br label %75

34:                                               ; preds = %1
  store ptr @.str.27, ptr %2, align 8
  br label %75

35:                                               ; preds = %1
  store ptr @.str.28, ptr %2, align 8
  br label %75

36:                                               ; preds = %1
  store ptr @.str.29, ptr %2, align 8
  br label %75

37:                                               ; preds = %1
  store ptr @.str.30, ptr %2, align 8
  br label %75

38:                                               ; preds = %1
  store ptr @.str.31, ptr %2, align 8
  br label %75

39:                                               ; preds = %1
  store ptr @.str.32, ptr %2, align 8
  br label %75

40:                                               ; preds = %1
  store ptr @.str.33, ptr %2, align 8
  br label %75

41:                                               ; preds = %1
  store ptr @.str.34, ptr %2, align 8
  br label %75

42:                                               ; preds = %1
  store ptr @.str.35, ptr %2, align 8
  br label %75

43:                                               ; preds = %1
  store ptr @.str.36, ptr %2, align 8
  br label %75

44:                                               ; preds = %1
  store ptr @.str.37, ptr %2, align 8
  br label %75

45:                                               ; preds = %1
  store ptr @.str.38, ptr %2, align 8
  br label %75

46:                                               ; preds = %1
  store ptr @.str.39, ptr %2, align 8
  br label %75

47:                                               ; preds = %1
  store ptr @.str.40, ptr %2, align 8
  br label %75

48:                                               ; preds = %1
  store ptr @.str.41, ptr %2, align 8
  br label %75

49:                                               ; preds = %1
  store ptr @.str.42, ptr %2, align 8
  br label %75

50:                                               ; preds = %1
  store ptr @.str.43, ptr %2, align 8
  br label %75

51:                                               ; preds = %1
  store ptr @.str.44, ptr %2, align 8
  br label %75

52:                                               ; preds = %1
  store ptr @.str.45, ptr %2, align 8
  br label %75

53:                                               ; preds = %1
  store ptr @.str.46, ptr %2, align 8
  br label %75

54:                                               ; preds = %1
  store ptr @.str.47, ptr %2, align 8
  br label %75

55:                                               ; preds = %1
  store ptr @.str.48, ptr %2, align 8
  br label %75

56:                                               ; preds = %1
  store ptr @.str.49, ptr %2, align 8
  br label %75

57:                                               ; preds = %1
  store ptr @.str.50, ptr %2, align 8
  br label %75

58:                                               ; preds = %1
  store ptr @.str.51, ptr %2, align 8
  br label %75

59:                                               ; preds = %1
  store ptr @.str.52, ptr %2, align 8
  br label %75

60:                                               ; preds = %1
  store ptr @.str.53, ptr %2, align 8
  br label %75

61:                                               ; preds = %1
  store ptr @.str.54, ptr %2, align 8
  br label %75

62:                                               ; preds = %1
  store ptr @.str.55, ptr %2, align 8
  br label %75

63:                                               ; preds = %1
  store ptr @.str.56, ptr %2, align 8
  br label %75

64:                                               ; preds = %1
  store ptr @.str.57, ptr %2, align 8
  br label %75

65:                                               ; preds = %1
  store ptr @.str.58, ptr %2, align 8
  br label %75

66:                                               ; preds = %1
  store ptr @.str.59, ptr %2, align 8
  br label %75

67:                                               ; preds = %1
  store ptr @.str.60, ptr %2, align 8
  br label %75

68:                                               ; preds = %1
  store ptr @.str.61, ptr %2, align 8
  br label %75

69:                                               ; preds = %1
  store ptr @.str.62, ptr %2, align 8
  br label %75

70:                                               ; preds = %1
  store ptr @.str.63, ptr %2, align 8
  br label %75

71:                                               ; preds = %1
  store ptr @.str.64, ptr %2, align 8
  br label %75

72:                                               ; preds = %1
  store ptr @.str.65, ptr %2, align 8
  br label %75

73:                                               ; preds = %1, %1, %1
  br label %74

74:                                               ; preds = %1, %73
  store ptr @.str.66, ptr %2, align 8
  br label %75

75:                                               ; preds = %74, %72, %71, %70, %69, %68, %67, %66, %65, %64, %63, %62, %61, %60, %59, %58, %57, %56, %55, %54, %53, %52, %51, %50, %49, %48, %47, %46, %45, %44, %43, %42, %41, %40, %39, %38, %37, %36, %35, %34, %33, %32, %31, %30, %29, %28, %27, %26, %25, %24, %23, %22, %21, %20, %19, %18, %17, %16, %15, %14, %13, %12, %11, %10, %9, %8, %7
  %76 = load ptr, ptr %2, align 8
  ret ptr %76
}