; Function Attrs: mustprogress nofree norecurse nosync nounwind willreturn memory(none) uwtable
define noundef nonnull ptr @lv_event_code_get_name(i32 noundef %0) local_unnamed_addr #11 {
  %2 = and i32 %0, -32769
  %3 = icmp ult i32 %2, 66
  br i1 %3, label %switch.lookup, label %5

switch.lookup:                                    ; preds = %1
  %4 = zext nneg i32 %2 to i64
  %switch.gep = getelementptr inbounds nuw [66 x ptr], ptr @switch.table.lv_event_code_get_name, i64 0, i64 %4
  %switch.load = load ptr, ptr %switch.gep, align 8
  br label %5

5:                                                ; preds = %1, %switch.lookup
  %.0 = phi ptr [ %switch.load, %switch.lookup ], [ @.str.66, %1 ]
  ret ptr %.0
}